target datalayout = "e-m:e-p270:32:32-p271:32:32-p272:64:64-i64:64-i128:128-f80:128-n8:16:32:64-S128"
target triple = "x86_64-pc-linux-gnu"

%struct.AF_AxisHintsRec_ = type { i32, i32, ptr, i32, i32, ptr, i32, %struct.anon }
%struct.anon = type { [18 x %struct.AF_SegmentRec_], [12 x %struct.AF_EdgeRec_] }
%struct.AF_SegmentRec_ = type { i8, i8, i16, i16, i16, i16, i16, ptr, ptr, ptr, ptr, i64, i64, ptr, ptr }
%struct.AF_EdgeRec_ = type { i16, i64, i64, i8, i8, i64, ptr, ptr, ptr, i32, ptr, ptr }

; Function Attrs: nounwind uwtable
define internal i32 @af_axis_hints_new_edge(ptr noundef %0, i32 noundef %1, i32 noundef %2, i8 noundef zeroext %3, ptr noundef %4, ptr noundef %5) #0 {
  %7 = alloca i32, align 4
  %8 = alloca ptr, align 8
  %9 = alloca i32, align 4
  %10 = alloca i32, align 4
  %11 = alloca i8, align 1
  %12 = alloca ptr, align 8
  %13 = alloca ptr, align 8
  %14 = alloca i32, align 4
  %15 = alloca ptr, align 8
  %16 = alloca ptr, align 8
  %17 = alloca i32, align 4
  %18 = alloca i32, align 4
  %19 = alloca i32, align 4
  %20 = alloca i32, align 4
  store ptr %0, ptr %8, align 8, !tbaa !192
  store i32 %1, ptr %9, align 4, !tbaa !43
  store i32 %2, ptr %10, align 4, !tbaa !43
  store i8 %3, ptr %11, align 1, !tbaa !127
  store ptr %4, ptr %12, align 8, !tbaa !108
  store ptr %5, ptr %13, align 8, !tbaa !370
  call void @llvm.lifetime.start.p0(i64 4, ptr %14) #10
  store i32 0, ptr %14, align 4, !tbaa !43
  call void @llvm.lifetime.start.p0(i64 8, ptr %15) #10
  store ptr null, ptr %15, align 8, !tbaa !283
  call void @llvm.lifetime.start.p0(i64 8, ptr %16) #10
  %21 = load ptr, ptr %8, align 8, !tbaa !192
  %22 = getelementptr inbounds nuw %struct.AF_AxisHintsRec_, ptr %21, i32 0, i32 3
  %23 = load i32, ptr %22, align 8, !tbaa !240
  %24 = icmp ult i32 %23, 12
  br i1 %24, label %25, label %40

25:                                               ; preds = %6
  %26 = load ptr, ptr %8, align 8, !tbaa !192
  %27 = getelementptr inbounds nuw %struct.AF_AxisHintsRec_, ptr %26, i32 0, i32 5
  %28 = load ptr, ptr %27, align 8, !tbaa !301
  %29 = icmp ne ptr %28, null
  br i1 %29, label %39, label %30

30:                                               ; preds = %25
  %31 = load ptr, ptr %8, align 8, !tbaa !192
  %32 = getelementptr inbounds nuw %struct.AF_AxisHintsRec_, ptr %31, i32 0, i32 7
  %33 = getelementptr inbounds nuw %struct.anon, ptr %32, i32 0, i32 1
  %34 = getelementptr inbounds [12 x %struct.AF_EdgeRec_], ptr %33, i64 0, i64 0
  %35 = load ptr, ptr %8, align 8, !tbaa !192
  %36 = getelementptr inbounds nuw %struct.AF_AxisHintsRec_, ptr %35, i32 0, i32 5
  store ptr %34, ptr %36, align 8, !tbaa !301
  %37 = load ptr, ptr %8, align 8, !tbaa !192
  %38 = getelementptr inbounds nuw %struct.AF_AxisHintsRec_, ptr %37, i32 0, i32 4
  store i32 12, ptr %38, align 4, !tbaa !300
  br label %39

39:                                               ; preds = %30, %25
  br label %123

40:                                               ; preds = %6
  %41 = load ptr, ptr %8, align 8, !tbaa !192
  %42 = getelementptr inbounds nuw %struct.AF_AxisHintsRec_, ptr %41, i32 0, i32 3
  %43 = load i32, ptr %42, align 8, !tbaa !240
  %44 = load ptr, ptr %8, align 8, !tbaa !192
  %45 = getelementptr inbounds nuw %struct.AF_AxisHintsRec_, ptr %44, i32 0, i32 4
  %46 = load i32, ptr %45, align 4, !tbaa !300
  %47 = icmp uge i32 %43, %46
  br i1 %47, label %48, label %122

48:                                               ; preds = %40
  call void @llvm.lifetime.start.p0(i64 4, ptr %17) #10
  %49 = load ptr, ptr %8, align 8, !tbaa !192
  %50 = getelementptr inbounds nuw %struct.AF_AxisHintsRec_, ptr %49, i32 0, i32 4
  %51 = load i32, ptr %50, align 4, !tbaa !300
  store i32 %51, ptr %17, align 4, !tbaa !43
  call void @llvm.lifetime.start.p0(i64 4, ptr %18) #10
  %52 = load i32, ptr %17, align 4, !tbaa !43
  store i32 %52, ptr %18, align 4, !tbaa !43
  call void @llvm.lifetime.start.p0(i64 4, ptr %19) #10
  store i32 24403223, ptr %19, align 4, !tbaa !43
  %53 = load i32, ptr %17, align 4, !tbaa !43
  %54 = load i32, ptr %19, align 4, !tbaa !43
  %55 = icmp uge i32 %53, %54
  br i1 %55, label %56, label %57

56:                                               ; preds = %48
  store i32 64, ptr %14, align 4, !tbaa !43
  store i32 2, ptr %20, align 4
  br label %119

57:                                               ; preds = %48
  %58 = load i32, ptr %18, align 4, !tbaa !43
  %59 = lshr i32 %58, 2
  %60 = add i32 %59, 4
  %61 = load i32, ptr %18, align 4, !tbaa !43
  %62 = add i32 %61, %60
  store i32 %62, ptr %18, align 4, !tbaa !43
  %63 = load i32, ptr %18, align 4, !tbaa !43
  %64 = load i32, ptr %17, align 4, !tbaa !43
  %65 = icmp ult i32 %63, %64
  br i1 %65, label %70, label %66

66:                                               ; preds = %57
  %67 = load i32, ptr %18, align 4, !tbaa !43
  %68 = load i32, ptr %19, align 4, !tbaa !43
  %69 = icmp ugt i32 %67, %68
  br i1 %69, label %70, label %72

70:                                               ; preds = %66, %57
  %71 = load i32, ptr %19, align 4, !tbaa !43
  store i32 %71, ptr %18, align 4, !tbaa !43
  br label %72

72:                                               ; preds = %70, %66
  %73 = load ptr, ptr %8, align 8, !tbaa !192
  %74 = getelementptr inbounds nuw %struct.AF_AxisHintsRec_, ptr %73, i32 0, i32 5
  %75 = load ptr, ptr %74, align 8, !tbaa !301
  %76 = load ptr, ptr %8, align 8, !tbaa !192
  %77 = getelementptr inbounds nuw %struct.AF_AxisHintsRec_, ptr %76, i32 0, i32 7
  %78 = getelementptr inbounds nuw %struct.anon, ptr %77, i32 0, i32 1
  %79 = getelementptr inbounds [12 x %struct.AF_EdgeRec_], ptr %78, i64 0, i64 0
  %80 = icmp eq ptr %75, %79
  br i1 %80, label %81, label %99

81:                                               ; preds = %72
  %82 = load ptr, ptr %12, align 8, !tbaa !108
  %83 = load i32, ptr %18, align 4, !tbaa !43
  %84 = zext i32 %83 to i64
  %85 = call ptr @ft_mem_realloc(ptr noundef %82, i64 noundef 88, i64 noundef 0, i64 noundef %84, ptr noundef null, ptr noundef %14)
  %86 = load ptr, ptr %8, align 8, !tbaa !192
  %87 = getelementptr inbounds nuw %struct.AF_AxisHintsRec_, ptr %86, i32 0, i32 5
  store ptr %85, ptr %87, align 8, !tbaa !301
  %88 = load i32, ptr %14, align 4, !tbaa !43
  %89 = icmp ne i32 %88, 0
  br i1 %89, label %90, label %91

90:                                               ; preds = %81
  store i32 2, ptr %20, align 4
  br label %119

91:                                               ; preds = %81
  %92 = load ptr, ptr %8, align 8, !tbaa !192
  %93 = getelementptr inbounds nuw %struct.AF_AxisHintsRec_, ptr %92, i32 0, i32 5
  %94 = load ptr, ptr %93, align 8, !tbaa !301
  %95 = load ptr, ptr %8, align 8, !tbaa !192
  %96 = getelementptr inbounds nuw %struct.AF_AxisHintsRec_, ptr %95, i32 0, i32 7
  %97 = getelementptr inbounds nuw %struct.anon, ptr %96, i32 0, i32 1
  %98 = getelementptr inbounds [12 x %struct.AF_EdgeRec_], ptr %97, i64 0, i64 0
  call void @llvm.memcpy.p0.p0.i64(ptr align 8 %94, ptr align 8 %98, i64 1056, i1 false)
  br label %115

99:                                               ; preds = %72
  %100 = load ptr, ptr %12, align 8, !tbaa !108
  %101 = load i32, ptr %17, align 4, !tbaa !43
  %102 = zext i32 %101 to i64
  %103 = load i32, ptr %18, align 4, !tbaa !43
  %104 = zext i32 %103 to i64
  %105 = load ptr, ptr %8, align 8, !tbaa !192
  %106 = getelementptr inbounds nuw %struct.AF_AxisHintsRec_, ptr %105, i32 0, i32 5
  %107 = load ptr, ptr %106, align 8, !tbaa !301
  %108 = call ptr @ft_mem_realloc(ptr noundef %100, i64 noundef 88, i64 noundef %102, i64 noundef %104, ptr noundef %107, ptr noundef %14)
  %109 = load ptr, ptr %8, align 8, !tbaa !192
  %110 = getelementptr inbounds nuw %struct.AF_AxisHintsRec_, ptr %109, i32 0, i32 5
  store ptr %108, ptr %110, align 8, !tbaa !301
  %111 = load i32, ptr %14, align 4, !tbaa !43
  %112 = icmp ne i32 %111, 0
  br i1 %112, label %113, label %114

113:                                              ; preds = %99
  store i32 2, ptr %20, align 4
  br label %119

114:                                              ; preds = %99
  br label %115

115:                                              ; preds = %114, %91
  %116 = load i32, ptr %18, align 4, !tbaa !43
  %117 = load ptr, ptr %8, align 8, !tbaa !192
  %118 = getelementptr inbounds nuw %struct.AF_AxisHintsRec_, ptr %117, i32 0, i32 4
  store i32 %116, ptr %118, align 4, !tbaa !300
  store i32 0, ptr %20, align 4
  br label %119

119:                                              ; preds = %113, %90, %56, %115
  call void @llvm.lifetime.end.p0(i64 4, ptr %19) #10
  call void @llvm.lifetime.end.p0(i64 4, ptr %18) #10
  call void @llvm.lifetime.end.p0(i64 4, ptr %17) #10
  %120 = load i32, ptr %20, align 4
  switch i32 %120, label %189 [
    i32 0, label %121
    i32 2, label %185
  ]

121:                                              ; preds = %119
  br label %122

122:                                              ; preds = %121, %40
  br label %123

123:                                              ; preds = %122, %39
  %124 = load ptr, ptr %8, align 8, !tbaa !192
  %125 = getelementptr inbounds nuw %struct.AF_AxisHintsRec_, ptr %124, i32 0, i32 5
  %126 = load ptr, ptr %125, align 8, !tbaa !301
  store ptr %126, ptr %16, align 8, !tbaa !283
  %127 = load ptr, ptr %16, align 8, !tbaa !283
  %128 = load ptr, ptr %8, align 8, !tbaa !192
  %129 = getelementptr inbounds nuw %struct.AF_AxisHintsRec_, ptr %128, i32 0, i32 3
  %130 = load i32, ptr %129, align 8, !tbaa !240
  %131 = zext i32 %130 to i64
  %132 = getelementptr inbounds nuw %struct.AF_EdgeRec_, ptr %127, i64 %131
  store ptr %132, ptr %15, align 8, !tbaa !283
  br label %133

133:                                              ; preds = %173, %123
  %134 = load ptr, ptr %15, align 8, !tbaa !283
  %135 = load ptr, ptr %16, align 8, !tbaa !283
  %136 = icmp ugt ptr %134, %135
  br i1 %136, label %137, label %180

137:                                              ; preds = %133
  %138 = load i8, ptr %11, align 1, !tbaa !127
  %139 = zext i8 %138 to i32
  %140 = icmp ne i32 %139, 0
  br i1 %140, label %141, label %149

141:                                              ; preds = %137
  %142 = load ptr, ptr %15, align 8, !tbaa !283
  %143 = getelementptr inbounds %struct.AF_EdgeRec_, ptr %142, i64 -1
  %144 = getelementptr inbounds nuw %struct.AF_EdgeRec_, ptr %143, i32 0, i32 0
  %145 = load i16, ptr %144, align 8, !tbaa !320
  %146 = sext i16 %145 to i32
  %147 = load i32, ptr %9, align 4, !tbaa !43
  %148 = icmp sgt i32 %146, %147
  br i1 %148, label %157, label %158

149:                                              ; preds = %137
  %150 = load ptr, ptr %15, align 8, !tbaa !283
  %151 = getelementptr inbounds %struct.AF_EdgeRec_, ptr %150, i64 -1
  %152 = getelementptr inbounds nuw %struct.AF_EdgeRec_, ptr %151, i32 0, i32 0
  %153 = load i16, ptr %152, align 8, !tbaa !320
  %154 = sext i16 %153 to i32
  %155 = load i32, ptr %9, align 4, !tbaa !43
  %156 = icmp slt i32 %154, %155
  br i1 %156, label %157, label %158

157:                                              ; preds = %149, %141
  br label %180

158:                                              ; preds = %149, %141
  %159 = load ptr, ptr %15, align 8, !tbaa !283
  %160 = getelementptr inbounds %struct.AF_EdgeRec_, ptr %159, i64 -1
  %161 = getelementptr inbounds nuw %struct.AF_EdgeRec_, ptr %160, i32 0, i32 0
  %162 = load i16, ptr %161, align 8, !tbaa !320
  %163 = sext i16 %162 to i32
  %164 = load i32, ptr %9, align 4, !tbaa !43
  %165 = icmp eq i32 %163, %164
  br i1 %165, label %166, label %173

166:                                              ; preds = %158
  %167 = load i32, ptr %10, align 4, !tbaa !43
  %168 = load ptr, ptr %8, align 8, !tbaa !192
  %169 = getelementptr inbounds nuw %struct.AF_AxisHintsRec_, ptr %168, i32 0, i32 6
  %170 = load i32, ptr %169, align 8, !tbaa !245
  %171 = icmp eq i32 %167, %170
  br i1 %171, label %172, label %173

172:                                              ; preds = %166
  br label %180

173:                                              ; preds = %166, %158
  %174 = load ptr, ptr %15, align 8, !tbaa !283
  %175 = getelementptr inbounds %struct.AF_EdgeRec_, ptr %174, i64 0
  %176 = load ptr, ptr %15, align 8, !tbaa !283
  %177 = getelementptr inbounds %struct.AF_EdgeRec_, ptr %176, i64 -1
  call void @llvm.memcpy.p0.p0.i64(ptr align 8 %175, ptr align 8 %177, i64 88, i1 false), !tbaa.struct !372
  %178 = load ptr, ptr %15, align 8, !tbaa !283
  %179 = getelementptr inbounds %struct.AF_EdgeRec_, ptr %178, i32 -1
  store ptr %179, ptr %15, align 8, !tbaa !283
  br label %133, !llvm.loop !373

180:                                              ; preds = %172, %157, %133
  %181 = load ptr, ptr %8, align 8, !tbaa !192
  %182 = getelementptr inbounds nuw %struct.AF_AxisHintsRec_, ptr %181, i32 0, i32 3
  %183 = load i32, ptr %182, align 8, !tbaa !240
  %184 = add i32 %183, 1
  store i32 %184, ptr %182, align 8, !tbaa !240
  br label %185

185:                                              ; preds = %180, %119
  %186 = load ptr, ptr %15, align 8, !tbaa !283
  %187 = load ptr, ptr %13, align 8, !tbaa !370
  store ptr %186, ptr %187, align 8, !tbaa !283
  %188 = load i32, ptr %14, align 4, !tbaa !43
  store i32 %188, ptr %7, align 4
  store i32 1, ptr %20, align 4
  br label %189

189:                                              ; preds = %185, %119
  call void @llvm.lifetime.end.p0(i64 8, ptr %16) #10
  call void @llvm.lifetime.end.p0(i64 8, ptr %15) #10
  call void @llvm.lifetime.end.p0(i64 4, ptr %14) #10
  %190 = load i32, ptr %7, align 4
  ret i32 %190
}