; Function Attrs: nounwind uwtable
define internal fastcc i32 @af_axis_hints_new_edge(ptr noundef %0, i32 noundef range(i32 -32768, 32768) %1, i32 noundef range(i32 -128, 128) %2, i8 noundef zeroext %3, ptr noundef %4, ptr noundef nonnull writeonly captures(none) %5) unnamed_addr #0 {
  %7 = alloca i32, align 4
  call void @llvm.lifetime.start.p0(i64 4, ptr nonnull %7) #20
  store i32 0, ptr %7, align 4, !tbaa !43
  %8 = getelementptr inbounds nuw i8, ptr %0, i64 16
  %9 = load i32, ptr %8, align 8, !tbaa !90
  %10 = icmp ult i32 %9, 12
  br i1 %10, label %11, label %17

11:                                               ; preds = %6
  %12 = getelementptr inbounds nuw i8, ptr %0, i64 24
  %13 = load ptr, ptr %12, align 8, !tbaa !85
  %.not63 = icmp eq ptr %13, null
  br i1 %.not63, label %14, label %45

14:                                               ; preds = %11
  %15 = getelementptr inbounds nuw i8, ptr %0, i64 1480
  store ptr %15, ptr %12, align 8, !tbaa !85
  %16 = getelementptr inbounds nuw i8, ptr %0, i64 20
  store i32 12, ptr %16, align 4, !tbaa !373
  br label %45

17:                                               ; preds = %6
  %18 = getelementptr inbounds nuw i8, ptr %0, i64 20
  %19 = load i32, ptr %18, align 4, !tbaa !373
  %.not = icmp ult i32 %9, %19
  br i1 %.not, label %.thread80, label %24

.thread80:                                        ; preds = %17
  %20 = getelementptr inbounds nuw i8, ptr %0, i64 24
  %21 = load ptr, ptr %20, align 8, !tbaa !85
  %22 = zext i32 %9 to i64
  %23 = getelementptr inbounds nuw %struct.AF_EdgeRec_, ptr %21, i64 %22
  br label %.lr.ph

24:                                               ; preds = %17
  %25 = icmp ugt i32 %19, 24403222
  br i1 %25, label %.thread, label %26

26:                                               ; preds = %24
  %27 = lshr i32 %19, 2
  %28 = add nuw nsw i32 %19, 4
  %29 = add nuw nsw i32 %28, %27
  %spec.select = tail call i32 @llvm.umin.i32(i32 %29, i32 24403223)
  %30 = getelementptr inbounds nuw i8, ptr %0, i64 24
  %31 = load ptr, ptr %30, align 8, !tbaa !85
  %32 = getelementptr inbounds nuw i8, ptr %0, i64 1480
  %33 = icmp eq ptr %31, %32
  br i1 %33, label %34, label %39

34:                                               ; preds = %26
  %35 = zext nneg i32 %spec.select to i64
  %36 = call ptr @ft_mem_realloc(ptr noundef %4, i64 noundef 88, i64 noundef 0, i64 noundef %35, ptr noundef null, ptr noundef nonnull %7) #20
  store ptr %36, ptr %30, align 8, !tbaa !85
  %37 = load i32, ptr %7, align 4, !tbaa !43
  %.not62 = icmp eq i32 %37, 0
  br i1 %.not62, label %38, label %.thread

38:                                               ; preds = %34
  call void @llvm.memcpy.p0.p0.i64(ptr noundef nonnull align 8 dereferenceable(1056) %36, ptr noundef nonnull align 8 dereferenceable(1056) %32, i64 1056, i1 false)
  br label %44

39:                                               ; preds = %26
  %40 = zext nneg i32 %19 to i64
  %41 = zext nneg i32 %spec.select to i64
  %42 = call ptr @ft_mem_realloc(ptr noundef %4, i64 noundef 88, i64 noundef %40, i64 noundef %41, ptr noundef %31, ptr noundef nonnull %7) #20
  store ptr %42, ptr %30, align 8, !tbaa !85
  %43 = load i32, ptr %7, align 4, !tbaa !43
  %.not61 = icmp eq i32 %43, 0
  br i1 %.not61, label %44, label %.thread

44:                                               ; preds = %38, %39
  store i32 %spec.select, ptr %18, align 4, !tbaa !373
  %.pre = load i32, ptr %8, align 8, !tbaa !90
  br label %45

45:                                               ; preds = %44, %11, %14
  %46 = phi i32 [ %.pre, %44 ], [ %9, %11 ], [ %9, %14 ]
  %47 = getelementptr inbounds nuw i8, ptr %0, i64 24
  %48 = load ptr, ptr %47, align 8, !tbaa !85
  %49 = zext i32 %46 to i64
  %50 = getelementptr inbounds nuw %struct.AF_EdgeRec_, ptr %48, i64 %49
  %.not77 = icmp eq i32 %46, 0
  br i1 %.not77, label %._crit_edge, label %.lr.ph

.lr.ph:                                           ; preds = %.thread80, %45
  %51 = phi ptr [ %23, %.thread80 ], [ %50, %45 ]
  %52 = phi ptr [ %21, %.thread80 ], [ %48, %45 ]
  %53 = getelementptr inbounds nuw i8, ptr %0, i64 32
  %.not64 = icmp eq i8 %3, 0
  br i1 %.not64, label %.lr.ph.split.us, label %.lr.ph.split

.lr.ph.split.us:                                  ; preds = %.lr.ph, %63
  %.168.us = phi ptr [ %54, %63 ], [ %51, %.lr.ph ]
  %54 = getelementptr inbounds i8, ptr %.168.us, i64 -88
  %55 = load i16, ptr %54, align 8, !tbaa !206
  %56 = sext i16 %55 to i32
  %57 = icmp sgt i32 %1, %56
  br i1 %57, label %._crit_edge, label %58

58:                                               ; preds = %.lr.ph.split.us
  %59 = icmp eq i32 %1, %56
  br i1 %59, label %60, label %63

60:                                               ; preds = %58
  %61 = load i32, ptr %53, align 8, !tbaa !205
  %62 = icmp eq i32 %2, %61
  br i1 %62, label %._crit_edge, label %63

63:                                               ; preds = %60, %58
  call void @llvm.memcpy.p0.p0.i64(ptr noundef nonnull align 8 dereferenceable(88) %.168.us, ptr noundef nonnull align 8 dereferenceable(88) %54, i64 88, i1 false), !tbaa.struct !427
  %64 = icmp ugt ptr %54, %52
  br i1 %64, label %.lr.ph.split.us, label %._crit_edge, !llvm.loop !429

.lr.ph.split:                                     ; preds = %.lr.ph, %74
  %.168 = phi ptr [ %65, %74 ], [ %51, %.lr.ph ]
  %65 = getelementptr inbounds i8, ptr %.168, i64 -88
  %66 = load i16, ptr %65, align 8, !tbaa !206
  %67 = sext i16 %66 to i32
  %68 = icmp slt i32 %1, %67
  br i1 %68, label %._crit_edge, label %69

69:                                               ; preds = %.lr.ph.split
  %70 = icmp eq i32 %1, %67
  br i1 %70, label %71, label %74

71:                                               ; preds = %69
  %72 = load i32, ptr %53, align 8, !tbaa !205
  %73 = icmp eq i32 %2, %72
  br i1 %73, label %._crit_edge, label %74

74:                                               ; preds = %71, %69
  call void @llvm.memcpy.p0.p0.i64(ptr noundef nonnull align 8 dereferenceable(88) %.168, ptr noundef nonnull align 8 dereferenceable(88) %65, i64 88, i1 false), !tbaa.struct !427
  %75 = icmp ugt ptr %65, %52
  br i1 %75, label %.lr.ph.split, label %._crit_edge, !llvm.loop !429

._crit_edge:                                      ; preds = %74, %.lr.ph.split, %71, %63, %.lr.ph.split.us, %60, %45
  %.1.lcssa = phi ptr [ %50, %45 ], [ %.168.us, %60 ], [ %.168.us, %.lr.ph.split.us ], [ %54, %63 ], [ %.168, %71 ], [ %.168, %.lr.ph.split ], [ %65, %74 ]
  %76 = load i32, ptr %8, align 8, !tbaa !90
  %77 = add i32 %76, 1
  store i32 %77, ptr %8, align 8, !tbaa !90
  br label %.thread

.thread:                                          ; preds = %24, %39, %34, %._crit_edge
  %78 = phi i32 [ 0, %._crit_edge ], [ %37, %34 ], [ %43, %39 ], [ 64, %24 ]
  %.055 = phi ptr [ %.1.lcssa, %._crit_edge ], [ null, %34 ], [ null, %39 ], [ null, %24 ]
  store ptr %.055, ptr %5, align 8, !tbaa !355
  call void @llvm.lifetime.end.p0(i64 4, ptr nonnull %7) #20
  ret i32 %78
}